; ModuleID = '31/1999.c'
source_filename = "31/1999.c"
target datalayout = "e-m:e-p270:32:32-p271:32:32-p272:64:64-i64:64-f80:128-n8:16:32:64-S128"
target triple = "x86_64-pc-linux-gnu"

%struct.student = type { [100 x i8], %struct.student* }

@ex = dso_local global [4 x i8] c"end\00", align 1

; Function Attrs: noinline nounwind uwtable
define dso_local void @main() #0 {
  %1 = alloca i32, align 4
  %2 = alloca %struct.student*, align 8
  %3 = alloca %struct.student*, align 8
  %4 = alloca %struct.student*, align 8
  %5 = alloca %struct.student*, align 8
  %6 = alloca %struct.student*, align 8
  store i32 0, i32* %1, align 4
  store %struct.student* null, %struct.student** %2, align 8
  store %struct.student* null, %struct.student** %3, align 8
  store %struct.student* null, %struct.student** %4, align 8
  %7 = call noalias i8* @malloc(i64 100) #4
  %8 = bitcast i8* %7 to %struct.student*
  store %struct.student* %8, %struct.student** %5, align 8
  store %struct.student* null, %struct.student** %6, align 8
  %9 = load %struct.student*, %struct.student** %5, align 8
  %10 = getelementptr inbounds %struct.student, %struct.student* %9, i32 0, i32 0
  %11 = getelementptr inbounds [100 x i8], [100 x i8]* %10, i64 0, i64 0
  %12 = call i32 (i8*, ...) bitcast (i32 (...)* @gets to i32 (i8*, ...)*)(i8* %11)
  br label %13

13:                                               ; preds = %19, %0
  %14 = load %struct.student*, %struct.student** %5, align 8
  %15 = getelementptr inbounds %struct.student, %struct.student* %14, i32 0, i32 0
  %16 = getelementptr inbounds [100 x i8], [100 x i8]* %15, i64 0, i64 0
  %17 = call i32 @strcmp(i8* getelementptr inbounds ([4 x i8], [4 x i8]* @ex, i64 0, i64 0), i8* %16) #5
  %18 = icmp ne i32 %17, 0
  br i1 %18, label %19, label %30

19:                                               ; preds = %13
  %20 = load %struct.student*, %struct.student** %6, align 8
  %21 = load %struct.student*, %struct.student** %5, align 8
  %22 = getelementptr inbounds %struct.student, %struct.student* %21, i32 0, i32 1
  store %struct.student* %20, %struct.student** %22, align 8
  %23 = load %struct.student*, %struct.student** %5, align 8
  store %struct.student* %23, %struct.student** %6, align 8
  %24 = call noalias i8* @malloc(i64 100) #4
  %25 = bitcast i8* %24 to %struct.student*
  store %struct.student* %25, %struct.student** %5, align 8
  %26 = load %struct.student*, %struct.student** %5, align 8
  %27 = getelementptr inbounds %struct.student, %struct.student* %26, i32 0, i32 0
  %28 = getelementptr inbounds [100 x i8], [100 x i8]* %27, i64 0, i64 0
  %29 = call i32 (i8*, ...) bitcast (i32 (...)* @gets to i32 (i8*, ...)*)(i8* %28)
  br label %13

30:                                               ; preds = %13
  store %struct.student* null, %struct.student** %5, align 8
  %31 = load %struct.student*, %struct.student** %6, align 8
  store %struct.student* %31, %struct.student** %4, align 8
  %32 = load %struct.student*, %struct.student** %4, align 8
  store %struct.student* %32, %struct.student** %2, align 8
  br label %33

33:                                               ; preds = %36, %30
  %34 = load %struct.student*, %struct.student** %2, align 8
  %35 = icmp ne %struct.student* %34, null
  br i1 %35, label %36, label %45

36:                                               ; preds = %33
  %37 = load %struct.student*, %struct.student** %2, align 8
  %38 = getelementptr inbounds %struct.student, %struct.student* %37, i32 0, i32 0
  %39 = getelementptr inbounds [100 x i8], [100 x i8]* %38, i64 0, i64 0
  %40 = call i32 @puts(i8* %39)
  %41 = load %struct.student*, %struct.student** %2, align 8
  %42 = getelementptr inbounds %struct.student, %struct.student* %41, i32 0, i32 1
  %43 = load %struct.student*, %struct.student** %42, align 8
  store %struct.student* %43, %struct.student** %3, align 8
  %44 = load %struct.student*, %struct.student** %3, align 8
  store %struct.student* %44, %struct.student** %2, align 8
  br label %33

45:                                               ; preds = %33
  ret void
}

; Function Attrs: nounwind
declare dso_local noalias i8* @malloc(i64) #1

declare dso_local i32 @gets(...) #2

; Function Attrs: nounwind readonly
declare dso_local i32 @strcmp(i8*, i8*) #3

declare dso_local i32 @puts(i8*) #2


!llvm.module.flags = !{!0}
!llvm.ident = !{!1}

!0 = !{i32 1, !"wchar_size", i32 4}
!1 = !{!"clang version 10.0.0-4ubuntu1 "}
