; ModuleID = 'source-C-CXX/30/1999.c'
source_filename = "source-C-CXX/30/1999.c"
target datalayout = "e-m:e-p270:32:32-p271:32:32-p272:64:64-i64:64-f80:128-n8:16:32:64-S128"
target triple = "x86_64-pc-linux-gnu"

%struct.student = type { [100 x i8], %struct.student* }

@ex = dso_local global [4 x i8] c"end\00", align 1

; Function Attrs: nounwind sspstrong uwtable
define dso_local void @main() local_unnamed_addr #0 {
  %1 = tail call noalias align 16 dereferenceable_or_null(100) i8* @malloc(i64 100) #5
  %2 = bitcast i8* %1 to %struct.student*
  %3 = getelementptr inbounds %struct.student, %struct.student* %2, i64 0, i32 0, i64 0
  %4 = tail call i32 (i8*, ...) bitcast (i32 (...)* @gets to i32 (i8*, ...)*)(i8* %3) #5
  %5 = tail call i32 @strcmp(i8* noundef nonnull dereferenceable(1) getelementptr inbounds ([4 x i8], [4 x i8]* @ex, i64 0, i64 0), i8* noundef nonnull dereferenceable(1) %3) #6
  %6 = icmp eq i32 %5, 0
  br i1 %6, label %24, label %7

7:                                                ; preds = %0, %7
  %8 = phi %struct.student* [ %9, %7 ], [ null, %0 ]
  %9 = phi %struct.student* [ %12, %7 ], [ %2, %0 ]
  %10 = getelementptr inbounds %struct.student, %struct.student* %9, i64 0, i32 1
  store %struct.student* %8, %struct.student** %10, align 8, !tbaa !5
  %11 = tail call noalias align 16 dereferenceable_or_null(100) i8* @malloc(i64 100) #5
  %12 = bitcast i8* %11 to %struct.student*
  %13 = getelementptr inbounds %struct.student, %struct.student* %12, i64 0, i32 0, i64 0
  %14 = tail call i32 (i8*, ...) bitcast (i32 (...)* @gets to i32 (i8*, ...)*)(i8* %13) #5
  %15 = tail call i32 @strcmp(i8* noundef nonnull dereferenceable(1) getelementptr inbounds ([4 x i8], [4 x i8]* @ex, i64 0, i64 0), i8* noundef nonnull dereferenceable(1) %13) #6
  %16 = icmp eq i32 %15, 0
  br i1 %16, label %17, label %7, !llvm.loop !10

17:                                               ; preds = %7, %17
  %18 = phi %struct.student* [ %22, %17 ], [ %9, %7 ]
  %19 = getelementptr inbounds %struct.student, %struct.student* %18, i64 0, i32 0, i64 0
  %20 = tail call i32 @puts(i8* nonnull %19)
  %21 = getelementptr inbounds %struct.student, %struct.student* %18, i64 0, i32 1
  %22 = load %struct.student*, %struct.student** %21, align 8, !tbaa !5
  %23 = icmp eq %struct.student* %22, null
  br i1 %23, label %24, label %17, !llvm.loop !12

24:                                               ; preds = %17, %0
  ret void
}

; Function Attrs: inaccessiblememonly mustprogress nofree nounwind willreturn
declare noalias noundef align 16 i8* @malloc(i64 noundef) local_unnamed_addr #1

declare i32 @gets(...) local_unnamed_addr #2

; Function Attrs: argmemonly mustprogress nofree nounwind readonly willreturn
declare i32 @strcmp(i8* nocapture, i8* nocapture) local_unnamed_addr #3

; Function Attrs: nofree nounwind
declare noundef i32 @puts(i8* nocapture noundef readonly) local_unnamed_addr #4


!llvm.module.flags = !{!0, !1, !2, !3}
!llvm.ident = !{!4}

!0 = !{i32 1, !"wchar_size", i32 4}
!1 = !{i32 7, !"PIC Level", i32 2}
!2 = !{i32 7, !"PIE Level", i32 2}
!3 = !{i32 7, !"uwtable", i32 1}
!4 = !{!"clang version 13.0.0"}
!5 = !{!6, !9, i64 104}
!6 = !{!"student", !7, i64 0, !9, i64 104}
!7 = !{!"omnipotent char", !8, i64 0}
!8 = !{!"Simple C/C++ TBAA"}
!9 = !{!"any pointer", !7, i64 0}
!10 = distinct !{!10, !11}
!11 = !{!"llvm.loop.mustprogress"}
!12 = distinct !{!12, !11}
